target datalayout = "e-m:e-p270:32:32-p271:32:32-p272:64:64-i64:64-i128:128-f80:128-n8:16:32:64-S128"
target triple = "x86_64-pc-linux-gnu"

%struct.cli_bc_ctx = type { i8, i16, i32, ptr, ptr, i32, i32, ptr, ptr, ptr, i32, i32, i64, ptr, ptr, ptr, %struct.cli_bc_hooks, %struct.cli_exe_info, [64 x i32], [64 x i32], i32, ptr, ptr, i32, i32, i32, i32, ptr, i32, ptr, ptr, i32, i32, i32, i32, i32, i32, ptr, ptr, ptr, ptr, ptr, ptr, ptr, i32, i32, i32, i32, ptr, ptr, ptr, ptr, ptr, i32, i32, i32, i32, ptr, ptr, ptr, ptr, i32, i32, i32, ptr, i32, ptr, i32, i32, ptr, i32 }
%struct.cli_bc_hooks = type { ptr, ptr, ptr, ptr, ptr }
%struct.cli_exe_info = type { ptr, i32, i32, i16, i32, i32, %struct.cli_hashset, i32, i32, i32, i32, i32, i32, i32, i32, i32, %struct.pe_image_file_hdr, %union.anon, [16 x %struct.pe_image_data_dir] }
%struct.cli_hashset = type { ptr, ptr, ptr, i32, i32, i32, i32 }
%struct.pe_image_file_hdr = type { i32, i16, i16, i32, i32, i32, i16, i16 }
%union.anon = type { %struct.pe_image_optional_hdr64 }
%struct.pe_image_optional_hdr64 = type { i16, i8, i8, i32, i32, i32, i32, i32, i64, i32, i32, i16, i16, i16, i16, i16, i16, i32, i32, i32, i32, i16, i16, i64, i64, i64, i64, i32, i32 }
%struct.pe_image_data_dir = type { i32, i32 }
%struct.cli_ctx_tag = type { ptr, ptr, ptr, ptr, ptr, ptr, ptr, i64, ptr, i32, i32, ptr, i32, i32, ptr, [16 x i8], ptr, ptr, ptr, ptr, ptr, ptr, %struct.timeval, i8, i8 }
%struct.timeval = type { i64, i64 }
%struct.cl_scan_options = type { i32, i32, i32, i32, i32 }

; Function Attrs: nounwind uwtable
define i32 @cli_bcapi_engine_scan_options(ptr noundef %0) #0 {
  %2 = alloca ptr, align 8
  %3 = alloca ptr, align 8
  %4 = alloca i32, align 4
  store ptr %0, ptr %2, align 8
  %5 = load ptr, ptr %2, align 8
  %6 = getelementptr inbounds %struct.cli_bc_ctx, ptr %5, i32 0, i32 30
  %7 = load ptr, ptr %6, align 8
  store ptr %7, ptr %3, align 8
  store i32 0, ptr %4, align 4
  %8 = load ptr, ptr %3, align 8
  %9 = getelementptr inbounds %struct.cli_ctx_tag, ptr %8, i32 0, i32 8
  %10 = load ptr, ptr %9, align 8
  %11 = getelementptr inbounds %struct.cl_scan_options, ptr %10, i32 0, i32 0
  %12 = load i32, ptr %11, align 4
  %13 = and i32 %12, 1
  %14 = icmp ne i32 %13, 0
  br i1 %14, label %15, label %18

15:                                               ; preds = %1
  %16 = load i32, ptr %4, align 4
  %17 = or i32 %16, 2097152
  store i32 %17, ptr %4, align 4
  br label %18

18:                                               ; preds = %15, %1
  %19 = load ptr, ptr %3, align 8
  %20 = getelementptr inbounds %struct.cli_ctx_tag, ptr %19, i32 0, i32 8
  %21 = load ptr, ptr %20, align 8
  %22 = getelementptr inbounds %struct.cl_scan_options, ptr %21, i32 0, i32 0
  %23 = load i32, ptr %22, align 4
  %24 = and i32 %23, 4
  %25 = icmp ne i32 %24, 0
  br i1 %25, label %26, label %29

26:                                               ; preds = %18
  %27 = load i32, ptr %4, align 4
  %28 = or i32 %27, 512
  store i32 %28, ptr %4, align 4
  br label %29

29:                                               ; preds = %26, %18
  %30 = load ptr, ptr %3, align 8
  %31 = getelementptr inbounds %struct.cli_ctx_tag, ptr %30, i32 0, i32 8
  %32 = load ptr, ptr %31, align 8
  %33 = getelementptr inbounds %struct.cl_scan_options, ptr %32, i32 0, i32 0
  %34 = load i32, ptr %33, align 4
  %35 = and i32 %34, 2
  %36 = icmp ne i32 %35, 0
  br i1 %36, label %37, label %40

37:                                               ; preds = %29
  %38 = load i32, ptr %4, align 4
  %39 = or i32 %38, 268435456
  store i32 %39, ptr %4, align 4
  br label %40

40:                                               ; preds = %37, %29
  %41 = load ptr, ptr %3, align 8
  %42 = getelementptr inbounds %struct.cli_ctx_tag, ptr %41, i32 0, i32 8
  %43 = load ptr, ptr %42, align 8
  %44 = getelementptr inbounds %struct.cl_scan_options, ptr %43, i32 0, i32 0
  %45 = load i32, ptr %44, align 4
  %46 = and i32 %45, 8
  %47 = icmp ne i32 %46, 0
  br i1 %47, label %48, label %51

48:                                               ; preds = %40
  %49 = load i32, ptr %4, align 4
  %50 = or i32 %49, 524288
  store i32 %50, ptr %4, align 4
  br label %51

51:                                               ; preds = %48, %40
  %52 = load ptr, ptr %3, align 8
  %53 = getelementptr inbounds %struct.cli_ctx_tag, ptr %52, i32 0, i32 8
  %54 = load ptr, ptr %53, align 8
  %55 = getelementptr inbounds %struct.cl_scan_options, ptr %54, i32 0, i32 1
  %56 = load i32, ptr %55, align 4
  %57 = and i32 %56, 1
  %58 = icmp ne i32 %57, 0
  br i1 %58, label %59, label %62

59:                                               ; preds = %51
  %60 = load i32, ptr %4, align 4
  %61 = or i32 %60, 1
  store i32 %61, ptr %4, align 4
  br label %62

62:                                               ; preds = %59, %51
  %63 = load ptr, ptr %3, align 8
  %64 = getelementptr inbounds %struct.cli_ctx_tag, ptr %63, i32 0, i32 8
  %65 = load ptr, ptr %64, align 8
  %66 = getelementptr inbounds %struct.cl_scan_options, ptr %65, i32 0, i32 1
  %67 = load i32, ptr %66, align 4
  %68 = and i32 %67, 2
  %69 = icmp ne i32 %68, 0
  br i1 %69, label %70, label %73

70:                                               ; preds = %62
  %71 = load i32, ptr %4, align 4
  %72 = or i32 %71, 8192
  store i32 %72, ptr %4, align 4
  br label %73

73:                                               ; preds = %70, %62
  %74 = load ptr, ptr %3, align 8
  %75 = getelementptr inbounds %struct.cli_ctx_tag, ptr %74, i32 0, i32 8
  %76 = load ptr, ptr %75, align 8
  %77 = getelementptr inbounds %struct.cl_scan_options, ptr %76, i32 0, i32 1
  %78 = load i32, ptr %77, align 4
  %79 = and i32 %78, 4
  %80 = icmp ne i32 %79, 0
  br i1 %80, label %81, label %84

81:                                               ; preds = %73
  %82 = load i32, ptr %4, align 4
  %83 = or i32 %82, 16384
  store i32 %83, ptr %4, align 4
  br label %84

84:                                               ; preds = %81, %73
  %85 = load ptr, ptr %3, align 8
  %86 = getelementptr inbounds %struct.cli_ctx_tag, ptr %85, i32 0, i32 8
  %87 = load ptr, ptr %86, align 8
  %88 = getelementptr inbounds %struct.cl_scan_options, ptr %87, i32 0, i32 1
  %89 = load i32, ptr %88, align 4
  %90 = and i32 %89, 8
  %91 = icmp ne i32 %90, 0
  br i1 %91, label %92, label %95

92:                                               ; preds = %84
  %93 = load i32, ptr %4, align 4
  %94 = or i32 %93, 4194304
  store i32 %94, ptr %4, align 4
  br label %95

95:                                               ; preds = %92, %84
  %96 = load ptr, ptr %3, align 8
  %97 = getelementptr inbounds %struct.cli_ctx_tag, ptr %96, i32 0, i32 8
  %98 = load ptr, ptr %97, align 8
  %99 = getelementptr inbounds %struct.cl_scan_options, ptr %98, i32 0, i32 1
  %100 = load i32, ptr %99, align 4
  %101 = and i32 %100, 16
  %102 = icmp ne i32 %101, 0
  br i1 %102, label %103, label %106

103:                                              ; preds = %95
  %104 = load i32, ptr %4, align 4
  %105 = or i32 %104, 33554432
  store i32 %105, ptr %4, align 4
  br label %106

106:                                              ; preds = %103, %95
  %107 = load ptr, ptr %3, align 8
  %108 = getelementptr inbounds %struct.cli_ctx_tag, ptr %107, i32 0, i32 8
  %109 = load ptr, ptr %108, align 8
  %110 = getelementptr inbounds %struct.cl_scan_options, ptr %109, i32 0, i32 1
  %111 = load i32, ptr %110, align 4
  %112 = and i32 %111, 32
  %113 = icmp ne i32 %112, 0
  br i1 %113, label %114, label %117

114:                                              ; preds = %106
  %115 = load i32, ptr %4, align 4
  %116 = or i32 %115, 16777216
  store i32 %116, ptr %4, align 4
  br label %117

117:                                              ; preds = %114, %106
  %118 = load ptr, ptr %3, align 8
  %119 = getelementptr inbounds %struct.cli_ctx_tag, ptr %118, i32 0, i32 8
  %120 = load ptr, ptr %119, align 8
  %121 = getelementptr inbounds %struct.cl_scan_options, ptr %120, i32 0, i32 1
  %122 = load i32, ptr %121, align 4
  %123 = and i32 %122, 64
  %124 = icmp ne i32 %123, 0
  br i1 %124, label %125, label %128

125:                                              ; preds = %117
  %126 = load i32, ptr %4, align 4
  %127 = or i32 %126, 2
  store i32 %127, ptr %4, align 4
  br label %128

128:                                              ; preds = %125, %117
  %129 = load ptr, ptr %3, align 8
  %130 = getelementptr inbounds %struct.cli_ctx_tag, ptr %129, i32 0, i32 8
  %131 = load ptr, ptr %130, align 8
  %132 = getelementptr inbounds %struct.cl_scan_options, ptr %131, i32 0, i32 1
  %133 = load i32, ptr %132, align 4
  %134 = and i32 %133, 128
  %135 = icmp ne i32 %134, 0
  br i1 %135, label %136, label %139

136:                                              ; preds = %128
  %137 = load i32, ptr %4, align 4
  %138 = or i32 %137, 4
  store i32 %138, ptr %4, align 4
  br label %139

139:                                              ; preds = %136, %128
  %140 = load ptr, ptr %3, align 8
  %141 = getelementptr inbounds %struct.cli_ctx_tag, ptr %140, i32 0, i32 8
  %142 = load ptr, ptr %141, align 8
  %143 = getelementptr inbounds %struct.cl_scan_options, ptr %142, i32 0, i32 1
  %144 = load i32, ptr %143, align 4
  %145 = and i32 %144, 256
  %146 = icmp ne i32 %145, 0
  br i1 %146, label %147, label %150

147:                                              ; preds = %139
  %148 = load i32, ptr %4, align 4
  %149 = or i32 %148, 16
  store i32 %149, ptr %4, align 4
  br label %150

150:                                              ; preds = %147, %139
  %151 = load ptr, ptr %3, align 8
  %152 = getelementptr inbounds %struct.cli_ctx_tag, ptr %151, i32 0, i32 8
  %153 = load ptr, ptr %152, align 8
  %154 = getelementptr inbounds %struct.cl_scan_options, ptr %153, i32 0, i32 1
  %155 = load i32, ptr %154, align 4
  %156 = and i32 %155, 512
  %157 = icmp ne i32 %156, 0
  br i1 %157, label %158, label %161

158:                                              ; preds = %150
  %159 = load i32, ptr %4, align 4
  %160 = or i32 %159, 32
  store i32 %160, ptr %4, align 4
  br label %161

161:                                              ; preds = %158, %150
  %162 = load ptr, ptr %3, align 8
  %163 = getelementptr inbounds %struct.cli_ctx_tag, ptr %162, i32 0, i32 8
  %164 = load ptr, ptr %163, align 8
  %165 = getelementptr inbounds %struct.cl_scan_options, ptr %164, i32 0, i32 2
  %166 = load i32, ptr %165, align 4
  %167 = and i32 %166, 2
  %168 = icmp ne i32 %167, 0
  br i1 %168, label %169, label %172

169:                                              ; preds = %161
  %170 = load i32, ptr %4, align 4
  %171 = or i32 %170, 64
  store i32 %171, ptr %4, align 4
  br label %172

172:                                              ; preds = %169, %161
  %173 = load ptr, ptr %3, align 8
  %174 = getelementptr inbounds %struct.cli_ctx_tag, ptr %173, i32 0, i32 8
  %175 = load ptr, ptr %174, align 8
  %176 = getelementptr inbounds %struct.cl_scan_options, ptr %175, i32 0, i32 2
  %177 = load i32, ptr %176, align 4
  %178 = and i32 %177, 4
  %179 = icmp ne i32 %178, 0
  br i1 %179, label %180, label %183

180:                                              ; preds = %172
  %181 = load i32, ptr %4, align 4
  %182 = or i32 %181, 256
  store i32 %182, ptr %4, align 4
  br label %183

183:                                              ; preds = %180, %172
  %184 = load ptr, ptr %3, align 8
  %185 = getelementptr inbounds %struct.cli_ctx_tag, ptr %184, i32 0, i32 8
  %186 = load ptr, ptr %185, align 8
  %187 = getelementptr inbounds %struct.cl_scan_options, ptr %186, i32 0, i32 2
  %188 = load i32, ptr %187, align 4
  %189 = and i32 %188, 8
  %190 = icmp ne i32 %189, 0
  br i1 %190, label %191, label %194

191:                                              ; preds = %183
  %192 = load i32, ptr %4, align 4
  %193 = or i32 %192, 2048
  store i32 %193, ptr %4, align 4
  br label %194

194:                                              ; preds = %191, %183
  %195 = load ptr, ptr %3, align 8
  %196 = getelementptr inbounds %struct.cli_ctx_tag, ptr %195, i32 0, i32 8
  %197 = load ptr, ptr %196, align 8
  %198 = getelementptr inbounds %struct.cl_scan_options, ptr %197, i32 0, i32 2
  %199 = load i32, ptr %198, align 4
  %200 = and i32 %199, 16
  %201 = icmp ne i32 %200, 0
  br i1 %201, label %202, label %205

202:                                              ; preds = %194
  %203 = load i32, ptr %4, align 4
  %204 = or i32 %203, 4096
  store i32 %204, ptr %4, align 4
  br label %205

205:                                              ; preds = %202, %194
  %206 = load ptr, ptr %3, align 8
  %207 = getelementptr inbounds %struct.cli_ctx_tag, ptr %206, i32 0, i32 8
  %208 = load ptr, ptr %207, align 8
  %209 = getelementptr inbounds %struct.cl_scan_options, ptr %208, i32 0, i32 2
  %210 = load i32, ptr %209, align 4
  %211 = and i32 %210, 32
  %212 = icmp ne i32 %211, 0
  br i1 %212, label %213, label %216

213:                                              ; preds = %205
  %214 = load i32, ptr %4, align 4
  %215 = or i32 %214, 1048576
  store i32 %215, ptr %4, align 4
  br label %216

216:                                              ; preds = %213, %205
  %217 = load ptr, ptr %3, align 8
  %218 = getelementptr inbounds %struct.cli_ctx_tag, ptr %217, i32 0, i32 8
  %219 = load ptr, ptr %218, align 8
  %220 = getelementptr inbounds %struct.cl_scan_options, ptr %219, i32 0, i32 2
  %221 = load i32, ptr %220, align 4
  %222 = and i32 %221, 64
  %223 = icmp ne i32 %222, 0
  br i1 %223, label %232, label %224

224:                                              ; preds = %216
  %225 = load ptr, ptr %3, align 8
  %226 = getelementptr inbounds %struct.cli_ctx_tag, ptr %225, i32 0, i32 8
  %227 = load ptr, ptr %226, align 8
  %228 = getelementptr inbounds %struct.cl_scan_options, ptr %227, i32 0, i32 2
  %229 = load i32, ptr %228, align 4
  %230 = and i32 %229, 128
  %231 = icmp ne i32 %230, 0
  br i1 %231, label %232, label %235

232:                                              ; preds = %224, %216
  %233 = load i32, ptr %4, align 4
  %234 = or i32 %233, 8
  store i32 %234, ptr %4, align 4
  br label %235

235:                                              ; preds = %232, %224
  %236 = load ptr, ptr %3, align 8
  %237 = getelementptr inbounds %struct.cli_ctx_tag, ptr %236, i32 0, i32 8
  %238 = load ptr, ptr %237, align 8
  %239 = getelementptr inbounds %struct.cl_scan_options, ptr %238, i32 0, i32 2
  %240 = load i32, ptr %239, align 4
  %241 = and i32 %240, 256
  %242 = icmp ne i32 %241, 0
  br i1 %242, label %243, label %246

243:                                              ; preds = %235
  %244 = load i32, ptr %4, align 4
  %245 = or i32 %244, 8388608
  store i32 %245, ptr %4, align 4
  br label %246

246:                                              ; preds = %243, %235
  %247 = load ptr, ptr %3, align 8
  %248 = getelementptr inbounds %struct.cli_ctx_tag, ptr %247, i32 0, i32 8
  %249 = load ptr, ptr %248, align 8
  %250 = getelementptr inbounds %struct.cl_scan_options, ptr %249, i32 0, i32 2
  %251 = load i32, ptr %250, align 4
  %252 = and i32 %251, 512
  %253 = icmp ne i32 %252, 0
  br i1 %253, label %254, label %257

254:                                              ; preds = %246
  %255 = load i32, ptr %4, align 4
  %256 = or i32 %255, 32768
  store i32 %256, ptr %4, align 4
  br label %257

257:                                              ; preds = %254, %246
  %258 = load ptr, ptr %3, align 8
  %259 = getelementptr inbounds %struct.cli_ctx_tag, ptr %258, i32 0, i32 8
  %260 = load ptr, ptr %259, align 8
  %261 = getelementptr inbounds %struct.cl_scan_options, ptr %260, i32 0, i32 2
  %262 = load i32, ptr %261, align 4
  %263 = and i32 %262, 1024
  %264 = icmp ne i32 %263, 0
  br i1 %264, label %265, label %268

265:                                              ; preds = %257
  %266 = load i32, ptr %4, align 4
  %267 = or i32 %266, 65536
  store i32 %267, ptr %4, align 4
  br label %268

268:                                              ; preds = %265, %257
  %269 = load ptr, ptr %3, align 8
  %270 = getelementptr inbounds %struct.cli_ctx_tag, ptr %269, i32 0, i32 8
  %271 = load ptr, ptr %270, align 8
  %272 = getelementptr inbounds %struct.cl_scan_options, ptr %271, i32 0, i32 2
  %273 = load i32, ptr %272, align 4
  %274 = and i32 %273, 2048
  %275 = icmp ne i32 %274, 0
  br i1 %275, label %276, label %279

276:                                              ; preds = %268
  %277 = load i32, ptr %4, align 4
  %278 = or i32 %277, 131072
  store i32 %278, ptr %4, align 4
  br label %279

279:                                              ; preds = %276, %268
  %280 = load ptr, ptr %3, align 8
  %281 = getelementptr inbounds %struct.cli_ctx_tag, ptr %280, i32 0, i32 8
  %282 = load ptr, ptr %281, align 8
  %283 = getelementptr inbounds %struct.cl_scan_options, ptr %282, i32 0, i32 3
  %284 = load i32, ptr %283, align 4
  %285 = and i32 %284, 1
  %286 = icmp ne i32 %285, 0
  br i1 %286, label %287, label %290

287:                                              ; preds = %279
  %288 = load i32, ptr %4, align 4
  %289 = or i32 %288, 262144
  store i32 %289, ptr %4, align 4
  br label %290

290:                                              ; preds = %287, %279
  %291 = load ptr, ptr %3, align 8
  %292 = getelementptr inbounds %struct.cli_ctx_tag, ptr %291, i32 0, i32 8
  %293 = load ptr, ptr %292, align 8
  %294 = getelementptr inbounds %struct.cl_scan_options, ptr %293, i32 0, i32 4
  %295 = load i32, ptr %294, align 4
  %296 = and i32 %295, 1
  %297 = icmp ne i32 %296, 0
  br i1 %297, label %298, label %301

298:                                              ; preds = %290
  %299 = load i32, ptr %4, align 4
  %300 = or i32 %299, -2147483648
  store i32 %300, ptr %4, align 4
  br label %301

301:                                              ; preds = %298, %290
  %302 = load ptr, ptr %3, align 8
  %303 = getelementptr inbounds %struct.cli_ctx_tag, ptr %302, i32 0, i32 8
  %304 = load ptr, ptr %303, align 8
  %305 = getelementptr inbounds %struct.cl_scan_options, ptr %304, i32 0, i32 4
  %306 = load i32, ptr %305, align 4
  %307 = and i32 %306, 2
  %308 = icmp ne i32 %307, 0
  br i1 %308, label %309, label %312

309:                                              ; preds = %301
  %310 = load i32, ptr %4, align 4
  %311 = or i32 %310, 1073741824
  store i32 %311, ptr %4, align 4
  br label %312

312:                                              ; preds = %309, %301
  %313 = load i32, ptr %4, align 4
  ret i32 %313
}