; Function Attrs: mustprogress nofree norecurse nosync nounwind willreturn memory(read, inaccessiblemem: none) uwtable
define i32 @cli_bcapi_engine_scan_options(ptr nocapture noundef readonly %0) local_unnamed_addr #21 {
  %2 = getelementptr inbounds i8, ptr %0, i64 1088
  %3 = load ptr, ptr %2, align 8
  %4 = getelementptr inbounds i8, ptr %3, i64 64
  %5 = load ptr, ptr %4, align 8
  %6 = load i32, ptr %5, align 4
  %7 = shl i32 %6, 21
  %spec.select = and i32 %7, 2097152
  %8 = shl i32 %6, 7
  %9 = and i32 %8, 512
  %.1 = or disjoint i32 %spec.select, %9
  %10 = shl i32 %6, 27
  %11 = and i32 %10, 268435456
  %.2 = or disjoint i32 %.1, %11
  %12 = shl i32 %6, 16
  %13 = and i32 %12, 524288
  %.3 = or disjoint i32 %.2, %13
  %14 = getelementptr inbounds i8, ptr %5, i64 4
  %15 = load i32, ptr %14, align 4
  %16 = and i32 %15, 1
  %.4 = or disjoint i32 %.3, %16
  %17 = shl i32 %15, 12
  %18 = and i32 %17, 24576
  %.6 = or disjoint i32 %.4, %18
  %19 = shl i32 %15, 19
  %20 = and i32 %19, 4194304
  %.7 = or i32 %.6, %20
  %21 = shl i32 %15, 21
  %22 = and i32 %21, 33554432
  %.8 = or i32 %.7, %22
  %23 = and i32 %19, 16777216
  %.9 = or i32 %.8, %23
  %24 = lshr i32 %15, 5
  %25 = and i32 %24, 6
  %.11 = or i32 %.9, %25
  %26 = lshr i32 %15, 4
  %27 = and i32 %26, 48
  %.13 = or i32 %.11, %27
  %28 = getelementptr inbounds i8, ptr %5, i64 8
  %29 = load i32, ptr %28, align 4
  %30 = shl i32 %29, 5
  %31 = and i32 %30, 64
  %.14 = or i32 %.13, %31
  %32 = shl i32 %29, 6
  %33 = and i32 %32, 256
  %.15 = or i32 %.14, %33
  %34 = shl i32 %29, 8
  %35 = and i32 %34, 6144
  %.17 = or i32 %.15, %35
  %36 = shl i32 %29, 15
  %37 = and i32 %36, 1048576
  %.18 = or i32 %.17, %37
  %38 = and i32 %29, 192
  %or.cond = icmp eq i32 %38, 0
  %39 = or i32 %.18, 8
  %.19 = select i1 %or.cond, i32 %.18, i32 %39
  %40 = and i32 %36, 8388608
  %41 = getelementptr inbounds i8, ptr %5, i64 12
  %42 = load i32, ptr %41, align 4
  %43 = shl i32 %42, 18
  %44 = and i32 %43, 262144
  %45 = getelementptr inbounds i8, ptr %5, i64 16
  %46 = load i32, ptr %45, align 4
  %47 = shl i32 %46, 31
  %48 = shl i32 %46, 29
  %49 = and i32 %48, 1073741824
  %50 = and i32 %32, 229376
  %.22 = or disjoint i32 %50, %40
  %.21 = or disjoint i32 %.22, %44
  %.20 = or disjoint i32 %.21, %47
  %.25 = or disjoint i32 %.20, %49
  %.26 = or i32 %.25, %.19
  ret i32 %.26
}